target datalayout = "e-m:e-p270:32:32-p271:32:32-p272:64:64-i64:64-i128:128-f80:128-n8:16:32:64-S128"
target triple = "x86_64-pc-linux-gnu"

%struct.ggml_backend_buffer_i = type { ptr, ptr, ptr, ptr, ptr, ptr, ptr, ptr, ptr }
%struct.ggml_backend_buffer = type { %struct.ggml_backend_buffer_i, ptr, ptr, i64, i32 }

; Function Attrs: mustprogress uwtable
define void @ggml_backend_buffer_reset(ptr noundef %0) #0 {
  %2 = alloca ptr, align 8
  store ptr %0, ptr %2, align 8, !tbaa !24
  %3 = load ptr, ptr %2, align 8, !tbaa !24
  %4 = getelementptr inbounds nuw %struct.ggml_backend_buffer, ptr %3, i32 0, i32 0
  %5 = getelementptr inbounds nuw %struct.ggml_backend_buffer_i, ptr %4, i32 0, i32 8
  %6 = load ptr, ptr %5, align 8, !tbaa !48
  %7 = icmp ne ptr %6, null
  br i1 %7, label %8, label %14

8:                                                ; preds = %1
  %9 = load ptr, ptr %2, align 8, !tbaa !24
  %10 = getelementptr inbounds nuw %struct.ggml_backend_buffer, ptr %9, i32 0, i32 0
  %11 = getelementptr inbounds nuw %struct.ggml_backend_buffer_i, ptr %10, i32 0, i32 8
  %12 = load ptr, ptr %11, align 8, !tbaa !48
  %13 = load ptr, ptr %2, align 8, !tbaa !24
  call void %12(ptr noundef %13)
  br label %14

14:                                               ; preds = %8, %1
  ret void
}